target datalayout = "e-m:e-p270:32:32-p271:32:32-p272:64:64-i64:64-i128:128-f80:128-n8:16:32:64-S128"
target triple = "x86_64-pc-linux-gnu"

%struct._php_netstream_data_t = type { i32, i8, %struct.timeval, i8, i64 }
%struct.timeval = type { i64, i64 }
%struct.sockaddr_storage = type { i16, [118 x i8], i64 }
%union.__SOCKADDR_ARG = type { ptr }

@zend_empty_string = external global ptr, align 8

; Function Attrs: inlinehint nounwind uwtable
define internal i32 @sock_recvfrom(ptr noundef %0, ptr noundef %1, i64 noundef %2, i32 noundef %3, ptr noundef %4, ptr noundef %5, ptr noundef %6) #8 {
  %8 = alloca ptr, align 8
  %9 = alloca ptr, align 8
  %10 = alloca i64, align 8
  %11 = alloca i32, align 4
  %12 = alloca ptr, align 8
  %13 = alloca ptr, align 8
  %14 = alloca ptr, align 8
  %15 = alloca i32, align 4
  %16 = alloca i32, align 4
  %17 = alloca %struct.sockaddr_storage, align 8
  %18 = alloca i32, align 4
  %19 = alloca %union.__SOCKADDR_ARG, align 8
  store ptr %0, ptr %8, align 8, !tbaa !24
  store ptr %1, ptr %9, align 8, !tbaa !9
  store i64 %2, ptr %10, align 8, !tbaa !11
  store i32 %3, ptr %11, align 4, !tbaa !33
  store ptr %4, ptr %12, align 8, !tbaa !90
  store ptr %5, ptr %13, align 8, !tbaa !92
  store ptr %6, ptr %14, align 8, !tbaa !94
  call void @llvm.lifetime.start.p0(i64 4, ptr %15) #12
  call void @llvm.lifetime.start.p0(i64 4, ptr %16) #12
  %20 = load ptr, ptr %12, align 8, !tbaa !90
  %21 = icmp ne ptr %20, null
  br i1 %21, label %25, label %22

22:                                               ; preds = %7
  %23 = load ptr, ptr %13, align 8, !tbaa !92
  %24 = icmp ne ptr %23, null
  br label %25

25:                                               ; preds = %22, %7
  %26 = phi i1 [ true, %7 ], [ %24, %22 ]
  %27 = zext i1 %26 to i32
  store i32 %27, ptr %16, align 4, !tbaa !33
  %28 = load i32, ptr %16, align 4, !tbaa !33
  %29 = icmp ne i32 %28, 0
  br i1 %29, label %30, label %69

30:                                               ; preds = %25
  call void @llvm.lifetime.start.p0(i64 128, ptr %17) #12
  call void @llvm.lifetime.start.p0(i64 4, ptr %18) #12
  store i32 128, ptr %18, align 4, !tbaa !33
  %31 = load ptr, ptr %8, align 8, !tbaa !24
  %32 = getelementptr inbounds nuw %struct._php_netstream_data_t, ptr %31, i32 0, i32 0
  %33 = load i32, ptr %32, align 8, !tbaa !26
  %34 = load ptr, ptr %9, align 8, !tbaa !9
  %35 = load i64, ptr %10, align 8, !tbaa !11
  %36 = load i32, ptr %11, align 4, !tbaa !33
  store ptr %17, ptr %19, align 8, !tbaa !89
  %37 = getelementptr inbounds nuw %union.__SOCKADDR_ARG, ptr %19, i32 0, i32 0
  %38 = load ptr, ptr %37, align 8
  %39 = call i64 @recvfrom(i32 noundef %33, ptr noundef %34, i64 noundef %35, i32 noundef %36, ptr %38, ptr noundef %18)
  %40 = trunc i64 %39 to i32
  store i32 %40, ptr %15, align 4, !tbaa !33
  %41 = load i32, ptr %15, align 4, !tbaa !33
  %42 = icmp eq i32 %41, -1
  br i1 %42, label %43, label %44

43:                                               ; preds = %30
  br label %46

44:                                               ; preds = %30
  %45 = load i32, ptr %15, align 4, !tbaa !33
  br label %46

46:                                               ; preds = %44, %43
  %47 = phi i32 [ -1, %43 ], [ %45, %44 ]
  store i32 %47, ptr %15, align 4, !tbaa !33
  %48 = load i32, ptr %18, align 4, !tbaa !33
  %49 = icmp ne i32 %48, 0
  br i1 %49, label %50, label %55

50:                                               ; preds = %46
  %51 = load i32, ptr %18, align 4, !tbaa !33
  %52 = load ptr, ptr %12, align 8, !tbaa !90
  %53 = load ptr, ptr %13, align 8, !tbaa !92
  %54 = load ptr, ptr %14, align 8, !tbaa !94
  call void @php_network_populate_name_from_sockaddr(ptr noundef %17, i32 noundef %51, ptr noundef %52, ptr noundef %53, ptr noundef %54)
  br label %68

55:                                               ; preds = %46
  %56 = load ptr, ptr %12, align 8, !tbaa !90
  %57 = icmp ne ptr %56, null
  br i1 %57, label %58, label %61

58:                                               ; preds = %55
  %59 = load ptr, ptr @zend_empty_string, align 8, !tbaa !96
  %60 = load ptr, ptr %12, align 8, !tbaa !90
  store ptr %59, ptr %60, align 8, !tbaa !96
  br label %61

61:                                               ; preds = %58, %55
  %62 = load ptr, ptr %13, align 8, !tbaa !92
  %63 = icmp ne ptr %62, null
  br i1 %63, label %64, label %67

64:                                               ; preds = %61
  %65 = load ptr, ptr %13, align 8, !tbaa !92
  store ptr null, ptr %65, align 8, !tbaa !88
  %66 = load ptr, ptr %14, align 8, !tbaa !94
  store i32 0, ptr %66, align 4, !tbaa !33
  br label %67

67:                                               ; preds = %64, %61
  br label %68

68:                                               ; preds = %67, %50
  call void @llvm.lifetime.end.p0(i64 4, ptr %18) #12
  call void @llvm.lifetime.end.p0(i64 128, ptr %17) #12
  br label %85

69:                                               ; preds = %25
  %70 = load ptr, ptr %8, align 8, !tbaa !24
  %71 = getelementptr inbounds nuw %struct._php_netstream_data_t, ptr %70, i32 0, i32 0
  %72 = load i32, ptr %71, align 8, !tbaa !26
  %73 = load ptr, ptr %9, align 8, !tbaa !9
  %74 = load i64, ptr %10, align 8, !tbaa !11
  %75 = load i32, ptr %11, align 4, !tbaa !33
  %76 = call i64 @recv(i32 noundef %72, ptr noundef %73, i64 noundef %74, i32 noundef %75)
  %77 = trunc i64 %76 to i32
  store i32 %77, ptr %15, align 4, !tbaa !33
  %78 = load i32, ptr %15, align 4, !tbaa !33
  %79 = icmp eq i32 %78, -1
  br i1 %79, label %80, label %81

80:                                               ; preds = %69
  br label %83

81:                                               ; preds = %69
  %82 = load i32, ptr %15, align 4, !tbaa !33
  br label %83

83:                                               ; preds = %81, %80
  %84 = phi i32 [ -1, %80 ], [ %82, %81 ]
  store i32 %84, ptr %15, align 4, !tbaa !33
  br label %85

85:                                               ; preds = %83, %68
  %86 = load i32, ptr %15, align 4, !tbaa !33
  call void @llvm.lifetime.end.p0(i64 4, ptr %16) #12
  call void @llvm.lifetime.end.p0(i64 4, ptr %15) #12
  ret i32 %86
}