; Function Attrs: inlinehint nounwind uwtable
define internal fastcc i32 @sock_recvfrom(ptr noundef nonnull readonly captures(none) %0, ptr noundef %1, i64 noundef %2, i32 noundef range(i32 0, 4) %3, ptr noundef %4, ptr noundef %5, ptr noundef %6) unnamed_addr #13 {
  %8 = alloca %struct.sockaddr_storage, align 8
  %9 = alloca i32, align 4
  %10 = icmp ne ptr %4, null
  %11 = icmp ne ptr %5, null
  %12 = or i1 %10, %11
  br i1 %12, label %13, label %24

13:                                               ; preds = %7
  call void @llvm.lifetime.start.p0(i64 128, ptr nonnull %8) #15
  call void @llvm.lifetime.start.p0(i64 4, ptr nonnull %9) #15
  store i32 128, ptr %9, align 4, !tbaa !26
  %14 = load i32, ptr %0, align 8, !tbaa !21
  %15 = call i64 @recvfrom(i32 noundef %14, ptr noundef %1, i64 noundef %2, i32 noundef %3, ptr nonnull %8, ptr noundef nonnull %9) #15
  %16 = load i32, ptr %9, align 4, !tbaa !26
  %.not = icmp eq i32 %16, 0
  br i1 %.not, label %18, label %17

17:                                               ; preds = %13
  call void @php_network_populate_name_from_sockaddr(ptr noundef nonnull %8, i32 noundef %16, ptr noundef %4, ptr noundef %5, ptr noundef %6) #15
  br label %23

18:                                               ; preds = %13
  br i1 %10, label %19, label %21

19:                                               ; preds = %18
  %20 = load ptr, ptr @zend_empty_string, align 8, !tbaa !84
  store ptr %20, ptr %4, align 8, !tbaa !84
  br label %21

21:                                               ; preds = %19, %18
  br i1 %11, label %22, label %23

22:                                               ; preds = %21
  store ptr null, ptr %5, align 8, !tbaa !85
  store i32 0, ptr %6, align 4, !tbaa !26
  br label %23

23:                                               ; preds = %21, %22, %17
  call void @llvm.lifetime.end.p0(i64 4, ptr nonnull %9) #15
  call void @llvm.lifetime.end.p0(i64 128, ptr nonnull %8) #15
  br label %27

24:                                               ; preds = %7
  %25 = load i32, ptr %0, align 8, !tbaa !21
  %26 = tail call i64 @recv(i32 noundef %25, ptr noundef %1, i64 noundef %2, i32 noundef %3) #15
  br label %27

27:                                               ; preds = %24, %23
  %.0.in = phi i64 [ %15, %23 ], [ %26, %24 ]
  %.0 = trunc i64 %.0.in to i32
  ret i32 %.0
}